; Function Attrs: mustprogress nounwind ssp uwtable
define void @_ZN6open3d13visualization25VisualizerWithKeyCallbackD2Ev(ptr noundef nonnull align 8 dereferenceable(648) initializes((0, 8)) %0) unnamed_addr #0 align 2 personality ptr @__gxx_personality_v0 {
  store ptr getelementptr inbounds nuw inrange(-16, 200) (i8, ptr @_ZTVN6open3d13visualization25VisualizerWithKeyCallbackE, i64 16), ptr %0, align 8, !tbaa !36
  %2 = getelementptr inbounds nuw i8, ptr %0, i64 632
  %3 = load ptr, ptr %2, align 8, !tbaa !13
  %.not.i = icmp eq ptr %3, null
  br i1 %.not.i, label %_ZNSt14_Function_baseD2Ev.exit, label %4

4:                                                ; preds = %1
  %5 = getelementptr inbounds nuw i8, ptr %0, i64 616
  %6 = invoke noundef zeroext i1 %3(ptr noundef nonnull align 8 dereferenceable(32) %5, ptr noundef nonnull align 8 dereferenceable(32) %5, i32 noundef 3)
          to label %_ZNSt14_Function_baseD2Ev.exit unwind label %7

7:                                                ; preds = %4
  %8 = landingpad { ptr, i32 }
          catch ptr null
  %9 = extractvalue { ptr, i32 } %8, 0
  tail call void @__clang_call_terminate(ptr %9) #35
  unreachable

_ZNSt14_Function_baseD2Ev.exit:                   ; preds = %1, %4
  %10 = getelementptr inbounds nuw i8, ptr %0, i64 600
  %11 = load ptr, ptr %10, align 8, !tbaa !13
  %.not.i1 = icmp eq ptr %11, null
  br i1 %.not.i1, label %_ZNSt14_Function_baseD2Ev.exit2, label %12

12:                                               ; preds = %_ZNSt14_Function_baseD2Ev.exit
  %13 = getelementptr inbounds nuw i8, ptr %0, i64 584
  %14 = invoke noundef zeroext i1 %11(ptr noundef nonnull align 8 dereferenceable(32) %13, ptr noundef nonnull align 8 dereferenceable(32) %13, i32 noundef 3)
          to label %_ZNSt14_Function_baseD2Ev.exit2 unwind label %15

15:                                               ; preds = %12
  %16 = landingpad { ptr, i32 }
          catch ptr null
  %17 = extractvalue { ptr, i32 } %16, 0
  tail call void @__clang_call_terminate(ptr %17) #35
  unreachable

_ZNSt14_Function_baseD2Ev.exit2:                  ; preds = %_ZNSt14_Function_baseD2Ev.exit, %12
  %18 = getelementptr inbounds nuw i8, ptr %0, i64 568
  %19 = load ptr, ptr %18, align 8, !tbaa !13
  %.not.i3 = icmp eq ptr %19, null
  br i1 %.not.i3, label %_ZNSt14_Function_baseD2Ev.exit4, label %20

20:                                               ; preds = %_ZNSt14_Function_baseD2Ev.exit2
  %21 = getelementptr inbounds nuw i8, ptr %0, i64 552
  %22 = invoke noundef zeroext i1 %19(ptr noundef nonnull align 8 dereferenceable(32) %21, ptr noundef nonnull align 8 dereferenceable(32) %21, i32 noundef 3)
          to label %_ZNSt14_Function_baseD2Ev.exit4 unwind label %23

23:                                               ; preds = %20
  %24 = landingpad { ptr, i32 }
          catch ptr null
  %25 = extractvalue { ptr, i32 } %24, 0
  tail call void @__clang_call_terminate(ptr %25) #35
  unreachable

_ZNSt14_Function_baseD2Ev.exit4:                  ; preds = %_ZNSt14_Function_baseD2Ev.exit2, %20
  %26 = getelementptr inbounds nuw i8, ptr %0, i64 504
  %27 = getelementptr inbounds nuw i8, ptr %0, i64 520
  %28 = load ptr, ptr %27, align 8, !tbaa !48
  invoke void @_ZNSt8_Rb_treeIiSt4pairIKiSt8functionIFbPN6open3d13visualization10VisualizerEiiEEESt10_Select1stIS9_ESt4lessIiESaIS9_EE8_M_eraseEPSt13_Rb_tree_nodeIS9_E(ptr noundef nonnull align 8 dereferenceable(48) %26, ptr noundef %28)
          to label %_ZNSt3mapIiSt8functionIFbPN6open3d13visualization10VisualizerEiiEESt4lessIiESaISt4pairIKiS6_EEED2Ev.exit unwind label %29

29:                                               ; preds = %_ZNSt14_Function_baseD2Ev.exit4
  %30 = landingpad { ptr, i32 }
          catch ptr null
  %31 = extractvalue { ptr, i32 } %30, 0
  tail call void @__clang_call_terminate(ptr %31) #35
  unreachable

_ZNSt3mapIiSt8functionIFbPN6open3d13visualization10VisualizerEiiEESt4lessIiESaISt4pairIKiS6_EEED2Ev.exit: ; preds = %_ZNSt14_Function_baseD2Ev.exit4
  %32 = getelementptr inbounds nuw i8, ptr %0, i64 456
  %33 = getelementptr inbounds nuw i8, ptr %0, i64 472
  %34 = load ptr, ptr %33, align 8, !tbaa !48
  invoke void @_ZNSt8_Rb_treeIiSt4pairIKiSt8functionIFbPN6open3d13visualization10VisualizerEEEESt10_Select1stIS9_ESt4lessIiESaIS9_EE8_M_eraseEPSt13_Rb_tree_nodeIS9_E(ptr noundef nonnull align 8 dereferenceable(48) %32, ptr noundef %34)
          to label %_ZNSt3mapIiSt8functionIFbPN6open3d13visualization10VisualizerEEESt4lessIiESaISt4pairIKiS6_EEED2Ev.exit unwind label %35

35:                                               ; preds = %_ZNSt3mapIiSt8functionIFbPN6open3d13visualization10VisualizerEiiEESt4lessIiESaISt4pairIKiS6_EEED2Ev.exit
  %36 = landingpad { ptr, i32 }
          catch ptr null
  %37 = extractvalue { ptr, i32 } %36, 0
  tail call void @__clang_call_terminate(ptr %37) #35
  unreachable

_ZNSt3mapIiSt8functionIFbPN6open3d13visualization10VisualizerEEESt4lessIiESaISt4pairIKiS6_EEED2Ev.exit: ; preds = %_ZNSt3mapIiSt8functionIFbPN6open3d13visualization10VisualizerEiiEESt4lessIiESaISt4pairIKiS6_EEED2Ev.exit
  tail call void @_ZN6open3d13visualization10VisualizerD2Ev(ptr noundef nonnull align 8 dereferenceable(456) %0) #30
  ret void
}